target datalayout = "e-m:e-p270:32:32-p271:32:32-p272:64:64-i64:64-i128:128-f80:128-n8:16:32:64-S128"
target triple = "x86_64-pc-linux-gnu"

%struct.sentinelRedisInstance = type { i32, ptr, ptr, i64, ptr, ptr, i64, i64, i64, i64, i64, i64, i64, i64, i64, ptr, i32, i64, i64, ptr, ptr, i32, i32, ptr, ptr, i64, i32, i32, i64, ptr, ptr, i32, i32, i64, ptr, i64, i64, i32, i64, i64, i64, i64, ptr, ptr, ptr, ptr }

@sentinel_info_period = internal global i64 10000, align 8

; Function Attrs: nounwind uwtable
define dso_local i32 @sentinelMasterLooksSane(ptr noundef %0) #0 {
  %2 = alloca ptr, align 8
  store ptr %0, ptr %2, align 8, !tbaa !11
  %3 = load ptr, ptr %2, align 8, !tbaa !11
  %4 = getelementptr inbounds nuw %struct.sentinelRedisInstance, ptr %3, i32 0, i32 0
  %5 = load i32, ptr %4, align 8, !tbaa !34
  %6 = and i32 %5, 1
  %7 = icmp ne i32 %6, 0
  br i1 %7, label %8, label %28

8:                                                ; preds = %1
  %9 = load ptr, ptr %2, align 8, !tbaa !11
  %10 = getelementptr inbounds nuw %struct.sentinelRedisInstance, ptr %9, i32 0, i32 16
  %11 = load i32, ptr %10, align 8, !tbaa !198
  %12 = icmp eq i32 %11, 1
  br i1 %12, label %13, label %28

13:                                               ; preds = %8
  %14 = load ptr, ptr %2, align 8, !tbaa !11
  %15 = getelementptr inbounds nuw %struct.sentinelRedisInstance, ptr %14, i32 0, i32 0
  %16 = load i32, ptr %15, align 8, !tbaa !34
  %17 = and i32 %16, 24
  %18 = icmp eq i32 %17, 0
  br i1 %18, label %19, label %28

19:                                               ; preds = %13
  %20 = call i64 @mstime()
  %21 = load ptr, ptr %2, align 8, !tbaa !11
  %22 = getelementptr inbounds nuw %struct.sentinelRedisInstance, ptr %21, i32 0, i32 14
  %23 = load i64, ptr %22, align 8, !tbaa !190
  %24 = sub nsw i64 %20, %23
  %25 = load i64, ptr @sentinel_info_period, align 8, !tbaa !119
  %26 = mul nsw i64 %25, 2
  %27 = icmp slt i64 %24, %26
  br label %28

28:                                               ; preds = %19, %13, %8, %1
  %29 = phi i1 [ false, %13 ], [ false, %8 ], [ false, %1 ], [ %27, %19 ]
  %30 = zext i1 %29 to i32
  ret i32 %30
}