; Function Attrs: nounwind uwtable
define dso_local range(i32 0, 2) i32 @sentinelMasterLooksSane(ptr noundef readonly captures(none) %0) local_unnamed_addr #0 {
  %2 = load i32, ptr %0, align 8, !tbaa !34
  %3 = and i32 %2, 1
  %.not = icmp eq i32 %3, 0
  br i1 %.not, label %19, label %4

4:                                                ; preds = %1
  %5 = getelementptr inbounds nuw i8, ptr %0, i64 128
  %6 = load i32, ptr %5, align 8, !tbaa !165
  %7 = icmp eq i32 %6, 1
  %8 = and i32 %2, 24
  %9 = icmp eq i32 %8, 0
  %or.cond = and i1 %9, %7
  br i1 %or.cond, label %10, label %19

10:                                               ; preds = %4
  %11 = tail call i64 @mstime() #30
  %12 = getelementptr inbounds nuw i8, ptr %0, i64 112
  %13 = load i64, ptr %12, align 8, !tbaa !163
  %14 = sub nsw i64 %11, %13
  %15 = load i64, ptr @sentinel_info_period, align 8, !tbaa !107
  %16 = shl nuw nsw i64 %15, 1
  %17 = icmp slt i64 %14, %16
  %18 = zext i1 %17 to i32
  br label %19

19:                                               ; preds = %10, %4, %1
  %20 = phi i32 [ 0, %4 ], [ 0, %1 ], [ %18, %10 ]
  ret i32 %20
}